; ModuleID = '31/362.c'
source_filename = "31/362.c"
target datalayout = "e-m:e-p270:32:32-p271:32:32-p272:64:64-i64:64-f80:128-n8:16:32:64-S128"
target triple = "x86_64-pc-linux-gnu"

; Function Attrs: noinline nounwind uwtable
define dso_local i32 @main() #0 {
  %1 = alloca i32, align 4
  %2 = alloca i32, align 4
  %3 = alloca i32, align 4
  %4 = alloca [501 x [500 x i8]], align 16
  store i32 0, i32* %1, align 4
  store i32 0, i32* %2, align 4
  br label %5

5:                                                ; preds = %21, %0
  %6 = load i32, i32* %2, align 4
  %7 = sext i32 %6 to i64
  %8 = getelementptr inbounds [501 x [500 x i8]], [501 x [500 x i8]]* %4, i64 0, i64 %7
  %9 = getelementptr inbounds [500 x i8], [500 x i8]* %8, i64 0, i64 0
  %10 = call i32 (i8*, ...) bitcast (i32 (...)* @gets to i32 (i8*, ...)*)(i8* %9)
  %11 = load i32, i32* %2, align 4
  %12 = sext i32 %11 to i64
  %13 = getelementptr inbounds [501 x [500 x i8]], [501 x [500 x i8]]* %4, i64 0, i64 %12
  %14 = getelementptr inbounds [500 x i8], [500 x i8]* %13, i64 0, i64 0
  %15 = load i8, i8* %14, align 4
  %16 = sext i8 %15 to i32
  %17 = icmp eq i32 %16, 101
  br i1 %17, label %18, label %20

18:                                               ; preds = %5
  %19 = load i32, i32* %2, align 4
  store i32 %19, i32* %3, align 4
  br label %24

20:                                               ; preds = %5
  br label %21

21:                                               ; preds = %20
  %22 = load i32, i32* %2, align 4
  %23 = add nsw i32 %22, 1
  store i32 %23, i32* %2, align 4
  br label %5

24:                                               ; preds = %18
  %25 = load i32, i32* %3, align 4
  %26 = sub nsw i32 %25, 1
  store i32 %26, i32* %2, align 4
  br label %27

27:                                               ; preds = %36, %24
  %28 = load i32, i32* %2, align 4
  %29 = icmp sge i32 %28, 0
  br i1 %29, label %30, label %39

30:                                               ; preds = %27
  %31 = load i32, i32* %2, align 4
  %32 = sext i32 %31 to i64
  %33 = getelementptr inbounds [501 x [500 x i8]], [501 x [500 x i8]]* %4, i64 0, i64 %32
  %34 = getelementptr inbounds [500 x i8], [500 x i8]* %33, i64 0, i64 0
  %35 = call i32 @puts(i8* %34)
  br label %36

36:                                               ; preds = %30
  %37 = load i32, i32* %2, align 4
  %38 = add nsw i32 %37, -1
  store i32 %38, i32* %2, align 4
  br label %27

39:                                               ; preds = %27
  ret i32 0
}

declare dso_local i32 @gets(...) #1

declare dso_local i32 @puts(i8*) #1


!llvm.module.flags = !{!0}
!llvm.ident = !{!1}

!0 = !{i32 1, !"wchar_size", i32 4}
!1 = !{!"clang version 10.0.0-4ubuntu1 "}
